; ModuleID = 'source-C-CXX/48/862.cpp'
source_filename = "source-C-CXX/48/862.cpp"
target datalayout = "e-m:e-p270:32:32-p271:32:32-p272:64:64-i64:64-f80:128-n8:16:32:64-S128"
target triple = "x86_64-pc-linux-gnu"

%"class.std::ios_base::Init" = type { i8 }
%"class.std::basic_istream" = type { i32 (...)**, i64, %"class.std::basic_ios" }
%"class.std::basic_ios" = type { %"class.std::ios_base", %"class.std::basic_ostream"*, i8, i8, %"class.std::basic_streambuf"*, %"class.std::ctype"*, %"class.std::num_put"*, %"class.std::num_get"* }
%"class.std::ios_base" = type { i32 (...)**, i64, i64, i32, i32, i32, %"struct.std::ios_base::_Callback_list"*, %"struct.std::ios_base::_Words", [8 x %"struct.std::ios_base::_Words"], i32, %"struct.std::ios_base::_Words"*, %"class.std::locale" }
%"struct.std::ios_base::_Callback_list" = type { %"struct.std::ios_base::_Callback_list"*, void (i32, %"class.std::ios_base"*, i32)*, i32, i32 }
%"struct.std::ios_base::_Words" = type { i8*, i64 }
%"class.std::locale" = type { %"class.std::locale::_Impl"* }
%"class.std::locale::_Impl" = type { i32, %"class.std::locale::facet"**, i64, %"class.std::locale::facet"**, i8** }
%"class.std::locale::facet" = type <{ i32 (...)**, i32, [4 x i8] }>
%"class.std::basic_ostream" = type { i32 (...)**, %"class.std::basic_ios" }
%"class.std::basic_streambuf" = type { i32 (...)**, i8*, i8*, i8*, i8*, i8*, i8*, %"class.std::locale" }
%"class.std::ctype" = type <{ %"class.std::locale::facet.base", [4 x i8], %struct.__locale_struct*, i8, [7 x i8], i32*, i32*, i16*, i8, [256 x i8], [256 x i8], i8, [6 x i8] }>
%"class.std::locale::facet.base" = type <{ i32 (...)**, i32 }>
%struct.__locale_struct = type { [13 x %struct.__locale_data*], i16*, i32*, i32*, [13 x i8*] }
%struct.__locale_data = type opaque
%"class.std::num_put" = type { %"class.std::locale::facet.base", [4 x i8] }
%"class.std::num_get" = type { %"class.std::locale::facet.base", [4 x i8] }

@_ZStL8__ioinit = internal global %"class.std::ios_base::Init" zeroinitializer, align 1
@__dso_handle = external hidden global i8
@_ZSt3cin = external global %"class.std::basic_istream", align 8
@_ZSt4cout = external global %"class.std::basic_ostream", align 8
@llvm.global_ctors = appending global [1 x { i32, void ()*, i8* }] [{ i32, void ()*, i8* } { i32 65535, void ()* @_GLOBAL__sub_I_862.cpp, i8* null }]

declare void @_ZNSt8ios_base4InitC1Ev(%"class.std::ios_base::Init"* nonnull align 1 dereferenceable(1)) unnamed_addr #0

; Function Attrs: nounwind
declare void @_ZNSt8ios_base4InitD1Ev(%"class.std::ios_base::Init"* nonnull align 1 dereferenceable(1)) unnamed_addr #1

; Function Attrs: nofree nounwind
declare i32 @__cxa_atexit(void (i8*)*, i8*, i8*) local_unnamed_addr #2

; Function Attrs: mustprogress norecurse sspstrong uwtable
define dso_local i32 @main() local_unnamed_addr #3 {
  %1 = alloca i8, align 1
  %2 = alloca [500 x i8], align 16
  %3 = getelementptr inbounds [500 x i8], [500 x i8]* %2, i64 0, i64 0
  call void @llvm.lifetime.start.p0i8(i64 500, i8* nonnull %3) #8
  call void @_ZSt17__istream_extractRSiPcl(%"class.std::basic_istream"* nonnull align 8 dereferenceable(16) @_ZSt3cin, i8* nonnull %3, i64 500)
  %4 = call i64 @strlen(i8* noundef nonnull %3) #9
  %5 = icmp ult i64 %4, 2
  br i1 %5, label %70, label %6

6:                                                ; preds = %0, %67
  %7 = phi i64 [ %68, %67 ], [ 2, %0 ]
  br label %8

8:                                                ; preds = %6, %62
  %9 = phi i64 [ 0, %6 ], [ %63, %62 ]
  %10 = add nuw nsw i64 %9, %7
  %11 = shl nuw nsw i64 %9, 1
  %12 = add nuw nsw i64 %11, %7
  br label %15

13:                                               ; preds = %15
  %14 = icmp ult i64 %26, %10
  br i1 %14, label %15, label %27, !llvm.loop !5

15:                                               ; preds = %8, %13
  %16 = phi i64 [ %9, %8 ], [ %26, %13 ]
  %17 = getelementptr inbounds [500 x i8], [500 x i8]* %2, i64 0, i64 %16
  %18 = load i8, i8* %17, align 1, !tbaa !7
  %19 = xor i64 %16, -1
  %20 = shl i64 %19, 32
  %21 = ashr exact i64 %20, 32
  %22 = add nsw i64 %12, %21
  %23 = getelementptr inbounds [500 x i8], [500 x i8]* %2, i64 0, i64 %22
  %24 = load i8, i8* %23, align 1, !tbaa !7
  %25 = icmp eq i8 %18, %24
  %26 = add nuw i64 %16, 1
  br i1 %25, label %13, label %62

27:                                               ; preds = %13, %27
  %28 = phi i64 [ %32, %27 ], [ %9, %13 ]
  %29 = getelementptr inbounds [500 x i8], [500 x i8]* %2, i64 0, i64 %28
  %30 = load i8, i8* %29, align 1, !tbaa !7
  call void @llvm.lifetime.start.p0i8(i64 1, i8* nonnull %1)
  store i8 %30, i8* %1, align 1, !tbaa !7
  %31 = call nonnull align 8 dereferenceable(8) %"class.std::basic_ostream"* @_ZSt16__ostream_insertIcSt11char_traitsIcEERSt13basic_ostreamIT_T0_ES6_PKS3_l(%"class.std::basic_ostream"* nonnull align 8 dereferenceable(8) @_ZSt4cout, i8* nonnull %1, i64 1)
  call void @llvm.lifetime.end.p0i8(i64 1, i8* nonnull %1)
  %32 = add nuw i64 %28, 1
  %33 = icmp ult i64 %32, %10
  br i1 %33, label %27, label %34, !llvm.loop !10

34:                                               ; preds = %27
  %35 = load i8*, i8** bitcast (%"class.std::basic_ostream"* @_ZSt4cout to i8**), align 8, !tbaa !11
  %36 = getelementptr i8, i8* %35, i64 -24
  %37 = bitcast i8* %36 to i64*
  %38 = load i64, i64* %37, align 8
  %39 = add nsw i64 %38, 240
  %40 = getelementptr inbounds i8, i8* bitcast (%"class.std::basic_ostream"* @_ZSt4cout to i8*), i64 %39
  %41 = bitcast i8* %40 to %"class.std::ctype"**
  %42 = load %"class.std::ctype"*, %"class.std::ctype"** %41, align 8, !tbaa !13
  %43 = icmp eq %"class.std::ctype"* %42, null
  br i1 %43, label %44, label %45

44:                                               ; preds = %34
  call void @_ZSt16__throw_bad_castv() #10
  unreachable

45:                                               ; preds = %34
  %46 = getelementptr inbounds %"class.std::ctype", %"class.std::ctype"* %42, i64 0, i32 8
  %47 = load i8, i8* %46, align 8, !tbaa !17
  %48 = icmp eq i8 %47, 0
  br i1 %48, label %52, label %49

49:                                               ; preds = %45
  %50 = getelementptr inbounds %"class.std::ctype", %"class.std::ctype"* %42, i64 0, i32 9, i64 10
  %51 = load i8, i8* %50, align 1, !tbaa !7
  br label %58

52:                                               ; preds = %45
  call void @_ZNKSt5ctypeIcE13_M_widen_initEv(%"class.std::ctype"* nonnull align 8 dereferenceable(570) %42)
  %53 = bitcast %"class.std::ctype"* %42 to i8 (%"class.std::ctype"*, i8)***
  %54 = load i8 (%"class.std::ctype"*, i8)**, i8 (%"class.std::ctype"*, i8)*** %53, align 8, !tbaa !11
  %55 = getelementptr inbounds i8 (%"class.std::ctype"*, i8)*, i8 (%"class.std::ctype"*, i8)** %54, i64 6
  %56 = load i8 (%"class.std::ctype"*, i8)*, i8 (%"class.std::ctype"*, i8)** %55, align 8
  %57 = call signext i8 %56(%"class.std::ctype"* nonnull align 8 dereferenceable(570) %42, i8 signext 10)
  br label %58

58:                                               ; preds = %49, %52
  %59 = phi i8 [ %51, %49 ], [ %57, %52 ]
  %60 = call nonnull align 8 dereferenceable(8) %"class.std::basic_ostream"* @_ZNSo3putEc(%"class.std::basic_ostream"* nonnull align 8 dereferenceable(8) @_ZSt4cout, i8 signext %59)
  %61 = call nonnull align 8 dereferenceable(8) %"class.std::basic_ostream"* @_ZNSo5flushEv(%"class.std::basic_ostream"* nonnull align 8 dereferenceable(8) %60)
  br label %62

62:                                               ; preds = %15, %58
  %63 = add nuw i64 %9, 1
  %64 = call i64 @strlen(i8* noundef nonnull %3) #9
  %65 = sub i64 %64, %7
  %66 = icmp ugt i64 %65, %9
  br i1 %66, label %8, label %67, !llvm.loop !19

67:                                               ; preds = %62
  %68 = add nuw i64 %7, 1
  %69 = icmp ugt i64 %64, %7
  br i1 %69, label %6, label %70, !llvm.loop !20

70:                                               ; preds = %67, %0
  call void @llvm.lifetime.end.p0i8(i64 500, i8* nonnull %3) #8
  ret i32 0
}

; Function Attrs: argmemonly mustprogress nofree nosync nounwind willreturn
declare void @llvm.lifetime.start.p0i8(i64 immarg, i8* nocapture) #4

; Function Attrs: argmemonly mustprogress nofree nounwind readonly willreturn
declare i64 @strlen(i8* nocapture) local_unnamed_addr #5

; Function Attrs: argmemonly mustprogress nofree nosync nounwind willreturn
declare void @llvm.lifetime.end.p0i8(i64 immarg, i8* nocapture) #4

declare void @_ZSt17__istream_extractRSiPcl(%"class.std::basic_istream"* nonnull align 8 dereferenceable(16), i8*, i64) local_unnamed_addr #0

declare nonnull align 8 dereferenceable(8) %"class.std::basic_ostream"* @_ZSt16__ostream_insertIcSt11char_traitsIcEERSt13basic_ostreamIT_T0_ES6_PKS3_l(%"class.std::basic_ostream"* nonnull align 8 dereferenceable(8), i8*, i64) local_unnamed_addr #0

declare nonnull align 8 dereferenceable(8) %"class.std::basic_ostream"* @_ZNSo3putEc(%"class.std::basic_ostream"* nonnull align 8 dereferenceable(8), i8 signext) local_unnamed_addr #0

declare nonnull align 8 dereferenceable(8) %"class.std::basic_ostream"* @_ZNSo5flushEv(%"class.std::basic_ostream"* nonnull align 8 dereferenceable(8)) local_unnamed_addr #0

; Function Attrs: noreturn
declare void @_ZSt16__throw_bad_castv() local_unnamed_addr #6

declare void @_ZNKSt5ctypeIcE13_M_widen_initEv(%"class.std::ctype"* nonnull align 8 dereferenceable(570)) local_unnamed_addr #0

; Function Attrs: sspstrong uwtable
define internal void @_GLOBAL__sub_I_862.cpp() #7 section ".text.startup" {
  tail call void @_ZNSt8ios_base4InitC1Ev(%"class.std::ios_base::Init"* nonnull align 1 dereferenceable(1) @_ZStL8__ioinit)
  %1 = tail call i32 @__cxa_atexit(void (i8*)* bitcast (void (%"class.std::ios_base::Init"*)* @_ZNSt8ios_base4InitD1Ev to void (i8*)*), i8* getelementptr inbounds (%"class.std::ios_base::Init", %"class.std::ios_base::Init"* @_ZStL8__ioinit, i64 0, i32 0), i8* nonnull @__dso_handle) #8
  ret void
}


!llvm.module.flags = !{!0, !1, !2, !3}
!llvm.ident = !{!4}

!0 = !{i32 1, !"wchar_size", i32 4}
!1 = !{i32 7, !"PIC Level", i32 2}
!2 = !{i32 7, !"PIE Level", i32 2}
!3 = !{i32 7, !"uwtable", i32 1}
!4 = !{!"clang version 13.0.0"}
!5 = distinct !{!5, !6}
!6 = !{!"llvm.loop.mustprogress"}
!7 = !{!8, !8, i64 0}
!8 = !{!"omnipotent char", !9, i64 0}
!9 = !{!"Simple C++ TBAA"}
!10 = distinct !{!10, !6}
!11 = !{!12, !12, i64 0}
!12 = !{!"vtable pointer", !9, i64 0}
!13 = !{!14, !15, i64 240}
!14 = !{!"_ZTSSt9basic_iosIcSt11char_traitsIcEE", !15, i64 216, !8, i64 224, !16, i64 225, !15, i64 232, !15, i64 240, !15, i64 248, !15, i64 256}
!15 = !{!"any pointer", !8, i64 0}
!16 = !{!"bool", !8, i64 0}
!17 = !{!18, !8, i64 56}
!18 = !{!"_ZTSSt5ctypeIcE", !15, i64 16, !16, i64 24, !15, i64 32, !15, i64 40, !15, i64 48, !8, i64 56, !8, i64 57, !8, i64 313, !8, i64 569}
!19 = distinct !{!19, !6}
!20 = distinct !{!20, !6}
